target datalayout = "e-m:e-p270:32:32-p271:32:32-p272:64:64-i64:64-i128:128-f80:128-n8:16:32:64-S128"
target triple = "x86_64-pc-linux-gnu"

%struct.Vec_Bit_t_ = type { i32, i32, ptr }
%struct.Abc_Cex_t_ = type { i32, i32, i32, i32, i32, [0 x i32] }

@.str = private unnamed_addr constant [32 x i8] c"Starting frame is less than 0.\0A\00", align 1
@.str.1 = private unnamed_addr constant [32 x i8] c"Stopping frame is less than 0.\0A\00", align 1
@.str.2 = private unnamed_addr constant [57 x i8] c"Starting frame is more than the last frame of CEX (%d).\0A\00", align 1
@.str.3 = private unnamed_addr constant [57 x i8] c"Stopping frame is more than the last frame of CEX (%d).\0A\00", align 1
@.str.4 = private unnamed_addr constant [62 x i8] c"Starting frame (%d) should be less than stopping frame (%d).\0A\00", align 1

; Function Attrs: nounwind uwtable
define internal void @Vec_BitFree(ptr noundef %0) #0 {
  %2 = alloca ptr, align 8
  store ptr %0, ptr %2, align 8
  %3 = load ptr, ptr %2, align 8
  %4 = getelementptr inbounds %struct.Vec_Bit_t_, ptr %3, i32 0, i32 2
  %5 = load ptr, ptr %4, align 8
  %6 = icmp ne ptr %5, null
  br i1 %6, label %7, label %13

7:                                                ; preds = %1
  %8 = load ptr, ptr %2, align 8
  %9 = getelementptr inbounds %struct.Vec_Bit_t_, ptr %8, i32 0, i32 2
  %10 = load ptr, ptr %9, align 8
  call void @free(ptr noundef %10) #11
  %11 = load ptr, ptr %2, align 8
  %12 = getelementptr inbounds %struct.Vec_Bit_t_, ptr %11, i32 0, i32 2
  store ptr null, ptr %12, align 8
  br label %14

13:                                               ; preds = %1
  br label %14

14:                                               ; preds = %13, %7
  %15 = load ptr, ptr %2, align 8
  %16 = icmp ne ptr %15, null
  br i1 %16, label %17, label %19

17:                                               ; preds = %14
  %18 = load ptr, ptr %2, align 8
  call void @free(ptr noundef %18) #11
  store ptr null, ptr %2, align 8
  br label %20

19:                                               ; preds = %14
  br label %20

20:                                               ; preds = %19, %17
  ret void
}

; Function Attrs: nounwind uwtable
define internal ptr @Vec_BitArray(ptr noundef %0) #0 {
  %2 = alloca ptr, align 8
  store ptr %0, ptr %2, align 8
  %3 = load ptr, ptr %2, align 8
  %4 = getelementptr inbounds %struct.Vec_Bit_t_, ptr %3, i32 0, i32 2
  %5 = load ptr, ptr %4, align 8
  ret ptr %5
}

; Function Attrs: nounwind uwtable
define ptr @Bmc_GiaTargetStates(ptr noundef %0, ptr noundef %1, i32 noundef %2, i32 noundef %3, i32 noundef %4, i32 noundef %5, i32 noundef %6, i32 noundef %7) #0 {
  %9 = alloca ptr, align 8
  %10 = alloca ptr, align 8
  %11 = alloca ptr, align 8
  %12 = alloca i32, align 4
  %13 = alloca i32, align 4
  %14 = alloca i32, align 4
  %15 = alloca i32, align 4
  %16 = alloca i32, align 4
  %17 = alloca i32, align 4
  %18 = alloca ptr, align 8
  %19 = alloca ptr, align 8
  %20 = alloca ptr, align 8
  store ptr %0, ptr %10, align 8
  store ptr %1, ptr %11, align 8
  store i32 %2, ptr %12, align 4
  store i32 %3, ptr %13, align 4
  store i32 %4, ptr %14, align 4
  store i32 %5, ptr %15, align 4
  store i32 %6, ptr %16, align 4
  store i32 %7, ptr %17, align 4
  %21 = load i32, ptr %12, align 4
  %22 = icmp slt i32 %21, 0
  br i1 %22, label %23, label %25

23:                                               ; preds = %8
  %24 = call i32 (ptr, ...) @printf(ptr noundef @.str)
  store ptr null, ptr %9, align 8
  br label %101

25:                                               ; preds = %8
  %26 = load i32, ptr %13, align 4
  %27 = icmp slt i32 %26, 0
  br i1 %27, label %28, label %30

28:                                               ; preds = %25
  %29 = call i32 (ptr, ...) @printf(ptr noundef @.str.1)
  store ptr null, ptr %9, align 8
  br label %101

30:                                               ; preds = %25
  %31 = load i32, ptr %12, align 4
  %32 = load ptr, ptr %11, align 8
  %33 = getelementptr inbounds %struct.Abc_Cex_t_, ptr %32, i32 0, i32 1
  %34 = load i32, ptr %33, align 4
  %35 = icmp sgt i32 %31, %34
  br i1 %35, label %36, label %41

36:                                               ; preds = %30
  %37 = load ptr, ptr %11, align 8
  %38 = getelementptr inbounds %struct.Abc_Cex_t_, ptr %37, i32 0, i32 1
  %39 = load i32, ptr %38, align 4
  %40 = call i32 (ptr, ...) @printf(ptr noundef @.str.2, i32 noundef %39)
  store ptr null, ptr %9, align 8
  br label %101

41:                                               ; preds = %30
  %42 = load i32, ptr %13, align 4
  %43 = load ptr, ptr %11, align 8
  %44 = getelementptr inbounds %struct.Abc_Cex_t_, ptr %43, i32 0, i32 1
  %45 = load i32, ptr %44, align 4
  %46 = icmp sgt i32 %42, %45
  br i1 %46, label %47, label %52

47:                                               ; preds = %41
  %48 = load ptr, ptr %11, align 8
  %49 = getelementptr inbounds %struct.Abc_Cex_t_, ptr %48, i32 0, i32 1
  %50 = load i32, ptr %49, align 4
  %51 = call i32 (ptr, ...) @printf(ptr noundef @.str.3, i32 noundef %50)
  store ptr null, ptr %9, align 8
  br label %101

52:                                               ; preds = %41
  %53 = load i32, ptr %12, align 4
  %54 = load i32, ptr %13, align 4
  %55 = icmp sgt i32 %53, %54
  br i1 %55, label %56, label %60

56:                                               ; preds = %52
  %57 = load i32, ptr %12, align 4
  %58 = load i32, ptr %13, align 4
  %59 = call i32 (ptr, ...) @printf(ptr noundef @.str.4, i32 noundef %57, i32 noundef %58)
  store ptr null, ptr %9, align 8
  br label %101

60:                                               ; preds = %52
  %61 = load i32, ptr %15, align 4
  %62 = icmp ne i32 %61, 0
  br i1 %62, label %63, label %69

63:                                               ; preds = %60
  %64 = load ptr, ptr %10, align 8
  %65 = load ptr, ptr %11, align 8
  %66 = load i32, ptr %12, align 4
  %67 = load i32, ptr %13, align 4
  %68 = call ptr @Bmc_GiaGenerateGiaOne(ptr noundef %64, ptr noundef %65, ptr noundef %20, i32 noundef %66, i32 noundef %67)
  store ptr %68, ptr %18, align 8
  br label %85

69:                                               ; preds = %60
  %70 = load i32, ptr %16, align 4
  %71 = icmp ne i32 %70, 0
  br i1 %71, label %72, label %78

72:                                               ; preds = %69
  %73 = load ptr, ptr %10, align 8
  %74 = load ptr, ptr %11, align 8
  %75 = load i32, ptr %12, align 4
  %76 = load i32, ptr %13, align 4
  %77 = call ptr @Bmc_GiaGenerateGiaAllFrames(ptr noundef %73, ptr noundef %74, ptr noundef %20, i32 noundef %75, i32 noundef %76)
  store ptr %77, ptr %18, align 8
  br label %84

78:                                               ; preds = %69
  %79 = load ptr, ptr %10, align 8
  %80 = load ptr, ptr %11, align 8
  %81 = load i32, ptr %12, align 4
  %82 = load i32, ptr %13, align 4
  %83 = call ptr @Bmc_GiaGenerateGiaAllOne(ptr noundef %79, ptr noundef %80, ptr noundef %20, i32 noundef %81, i32 noundef %82)
  store ptr %83, ptr %18, align 8
  br label %84

84:                                               ; preds = %78, %72
  br label %85

85:                                               ; preds = %84, %63
  %86 = load i32, ptr %14, align 4
  %87 = icmp ne i32 %86, 0
  br i1 %87, label %98, label %88

88:                                               ; preds = %85
  %89 = load ptr, ptr %10, align 8
  %90 = load ptr, ptr %18, align 8
  store ptr %90, ptr %19, align 8
  %91 = call ptr @Gia_ManDupWithNewPo(ptr noundef %89, ptr noundef %90)
  store ptr %91, ptr %18, align 8
  %92 = load ptr, ptr %19, align 8
  call void @Gia_ManStop(ptr noundef %92)
  %93 = load ptr, ptr %18, align 8
  store ptr %93, ptr %19, align 8
  %94 = load ptr, ptr %20, align 8
  %95 = call ptr @Vec_BitArray(ptr noundef %94)
  %96 = call ptr @Gia_ManDupFlip(ptr noundef %93, ptr noundef %95)
  store ptr %96, ptr %18, align 8
  %97 = load ptr, ptr %19, align 8
  call void @Gia_ManStop(ptr noundef %97)
  br label %98

98:                                               ; preds = %88, %85
  %99 = load ptr, ptr %20, align 8
  call void @Vec_BitFree(ptr noundef %99)
  %100 = load ptr, ptr %18, align 8
  store ptr %100, ptr %9, align 8
  br label %101

101:                                              ; preds = %98, %56, %47, %36, %28, %23
  %102 = load ptr, ptr %9, align 8
  ret ptr %102
}