; Function Attrs: nounwind uwtable
define ptr @Bmc_GiaTargetStates(ptr noundef %0, ptr noundef readonly captures(none) %1, i32 noundef %2, i32 noundef %3, i32 noundef %4, i32 noundef %5, i32 noundef %6, i32 %7) local_unnamed_addr #2 {
  %9 = alloca ptr, align 8
  %10 = icmp slt i32 %2, 0
  br i1 %10, label %11, label %12

11:                                               ; preds = %8
  %puts40 = tail call i32 @puts(ptr nonnull dereferenceable(1) @str.1)
  br label %48

12:                                               ; preds = %8
  %13 = icmp slt i32 %3, 0
  br i1 %13, label %14, label %15

14:                                               ; preds = %12
  %puts = tail call i32 @puts(ptr nonnull dereferenceable(1) @str)
  br label %48

15:                                               ; preds = %12
  %16 = getelementptr inbounds nuw i8, ptr %1, i64 4
  %17 = load i32, ptr %16, align 4
  %18 = icmp sgt i32 %2, %17
  br i1 %18, label %19, label %21

19:                                               ; preds = %15
  %20 = tail call i32 (ptr, ...) @printf(ptr noundef nonnull dereferenceable(1) @.str.2, i32 noundef %17)
  br label %48

21:                                               ; preds = %15
  %22 = icmp samesign ugt i32 %3, %17
  br i1 %22, label %23, label %25

23:                                               ; preds = %21
  %24 = tail call i32 (ptr, ...) @printf(ptr noundef nonnull dereferenceable(1) @.str.3, i32 noundef %17)
  br label %48

25:                                               ; preds = %21
  %26 = icmp samesign ugt i32 %2, %3
  br i1 %26, label %27, label %29

27:                                               ; preds = %25
  %28 = tail call i32 (ptr, ...) @printf(ptr noundef nonnull dereferenceable(1) @.str.4, i32 noundef %2, i32 noundef %3)
  br label %48

29:                                               ; preds = %25
  %.not = icmp eq i32 %5, 0
  br i1 %.not, label %32, label %30

30:                                               ; preds = %29
  %31 = call ptr @Bmc_GiaGenerateGiaOne(ptr noundef %0, ptr noundef nonnull %1, ptr noundef nonnull %9, i32 noundef %2, i32 noundef %3)
  br label %37

32:                                               ; preds = %29
  %.not38 = icmp eq i32 %6, 0
  br i1 %.not38, label %35, label %33

33:                                               ; preds = %32
  %34 = call ptr @Bmc_GiaGenerateGiaAllFrames(ptr noundef %0, ptr noundef nonnull %1, ptr noundef nonnull %9, i32 noundef %2, i32 noundef %3)
  br label %37

35:                                               ; preds = %32
  %36 = call ptr @Bmc_GiaGenerateGiaAllOne(ptr noundef %0, ptr noundef nonnull %1, ptr noundef nonnull %9, i32 noundef %2, i32 noundef %3)
  br label %37

37:                                               ; preds = %33, %35, %30
  %.033 = phi ptr [ %31, %30 ], [ %34, %33 ], [ %36, %35 ]
  %.not39 = icmp eq i32 %4, 0
  br i1 %.not39, label %38, label %._crit_edge

._crit_edge:                                      ; preds = %37
  %.pre = load ptr, ptr %9, align 8
  br label %43

38:                                               ; preds = %37
  %39 = tail call ptr @Gia_ManDupWithNewPo(ptr noundef %0, ptr noundef %.033) #16
  tail call void @Gia_ManStop(ptr noundef %.033) #16
  %40 = load ptr, ptr %9, align 8
  %41 = getelementptr i8, ptr %40, i64 8
  %.val = load ptr, ptr %41, align 8
  %42 = tail call ptr @Gia_ManDupFlip(ptr noundef %39, ptr noundef %.val) #16
  tail call void @Gia_ManStop(ptr noundef %39) #16
  br label %43

43:                                               ; preds = %._crit_edge, %38
  %44 = phi ptr [ %.pre, %._crit_edge ], [ %40, %38 ]
  %.1 = phi ptr [ %.033, %._crit_edge ], [ %42, %38 ]
  %45 = getelementptr inbounds nuw i8, ptr %44, i64 8
  %46 = load ptr, ptr %45, align 8
  %.not.i = icmp eq ptr %46, null
  br i1 %.not.i, label %Vec_BitFree.exit, label %47

47:                                               ; preds = %43
  tail call void @free(ptr noundef nonnull %46) #16
  br label %Vec_BitFree.exit

Vec_BitFree.exit:                                 ; preds = %43, %47
  tail call void @free(ptr noundef nonnull %44) #16
  br label %48

48:                                               ; preds = %Vec_BitFree.exit, %27, %23, %19, %14, %11
  %.0 = phi ptr [ null, %11 ], [ null, %14 ], [ null, %19 ], [ null, %23 ], [ null, %27 ], [ %.1, %Vec_BitFree.exit ]
  ret ptr %.0
}